Certificate:
    Data:
        Version: 3 (0x2)
        Serial Number: 5 (0x5)
    Signature Algorithm: sha256WithRSAEncryption
        Issuer: C=US, ST=Georgia, L=Atlanta, O=GATech, OU=MASTER, CN=CA/emailAddress=gatech@gatech.edu
        Validity
            Not Before: Dec  2 21:23:05 2016 GMT
            Not After : Dec  2 21:23:05 2017 GMT
        Subject: C=US, ST=Georgia, O=GATech, OU=MASTER, CN=Client/emailAddress=gatech@gatech.edu
        Subject Public Key Info:
            Public Key Algorithm: rsaEncryption
                Public-Key: (2048 bit)
                Modulus:
                    00:d4:a5:84:35:fc:6a:bb:3e:10:bb:e1:ab:bf:53:
                    7a:35:41:1e:b7:31:d0:92:68:bc:a5:2d:6a:ee:94:
                    41:e8:00:35:8c:33:71:1d:b1:89:4e:d8:22:a3:bc:
                    66:1e:90:21:c1:01:e6:0f:80:73:cd:ad:fe:26:2b:
                    ac:32:2a:7f:d1:37:c3:11:ce:35:e4:e9:d3:73:bf:
                    ad:54:9f:31:ca:8c:da:2b:c0:85:d4:49:d4:6d:13:
                    a0:38:b1:b4:39:e3:c1:c6:d2:f5:b3:00:70:bf:4b:
                    94:0c:ac:1d:4b:f7:7c:61:9b:d3:0b:03:e8:6b:db:
                    53:92:14:eb:ac:9c:74:97:18:00:20:63:a4:88:05:
                    5f:4f:80:42:db:8b:54:bb:0b:bb:0a:37:6f:0f:45:
                    7e:78:de:fa:65:b9:55:b7:b1:23:19:93:d9:66:a6:
                    e4:2c:f2:e2:b5:32:ee:be:6e:be:61:60:01:3a:86:
                    84:8a:64:4d:a1:29:3c:15:3a:83:83:ca:62:aa:e6:
                    c5:c1:88:97:dc:49:79:ac:22:94:68:43:dc:90:9f:
                    39:fd:8b:d8:43:b8:b6:58:d1:32:ed:0b:7c:82:e2:
                    14:68:c1:92:13:bd:81:4d:bd:f7:61:90:15:29:bc:
                    36:c2:cd:b3:c4:18:69:d1:51:e3:e4:d7:2b:ab:fa:
                    ef:1b
                Exponent: 65537 (0x10001)
        X509v3 extensions:
            X509v3 Basic Constraints: 
                CA:FALSE
            Netscape Comment: 
                OpenSSL Generated Certificate
            X509v3 Subject Key Identifier: 
                72:BE:20:85:AA:E5:73:89:5E:7C:BD:B9:07:B4:E6:19:2F:38:40:14
            X509v3 Authority Key Identifier: 
                keyid:FF:4C:0D:0D:0C:18:63:81:DA:60:51:BE:20:6A:D0:8F:08:D5:C2:DA

    Signature Algorithm: sha256WithRSAEncryption
         2c:08:9a:5a:01:8b:7e:a5:f3:23:c9:78:ff:91:3e:9f:e3:15:
         fd:4b:9b:48:33:49:1b:14:37:04:e4:8b:be:66:54:d0:77:44:
         f7:59:4a:06:94:61:04:e5:71:03:0a:c4:9d:bd:39:eb:e0:6a:
         fd:b1:a5:eb:f6:a5:1a:2d:ed:d8:bc:92:16:bf:5a:f4:e5:f2:
         d3:6d:07:b1:a1:a1:ab:ac:a2:9f:fa:e6:99:7b:e6:9b:5e:e2:
         47:77:1a:1e:94:e7:34:83:84:bd:02:24:a5:8e:0a:d5:66:23:
         25:f5:12:6e:91:7a:8b:f3:62:29:76:9b:ff:18:b5:eb:ad:38:
         05:90:04:1d:65:47:82:d6:76:c2:90:cf:3f:18:77:4c:cb:03:
         52:27:ef:8b:90:03:3f:c8:30:93:38:40:ee:46:98:76:c7:6b:
         03:b7:c6:52:07:b3:f9:42:92:54:63:b0:b4:4d:df:5e:7a:a5:
         95:f7:25:41:2b:bb:d1:aa:82:8a:7d:ff:cf:fb:03:a5:21:10:
         6c:b5:cf:9a:b8:ef:b2:47:5b:00:42:07:08:ef:ea:c5:5b:51:
         3a:b6:6d:11:df:c5:dc:39:8c:85:29:9c:1d:4e:c2:55:8a:93:
         32:88:b0:7c:c3:fd:32:92:a2:55:62:86:eb:27:01:35:79:8f:
         62:96:03:2e
-----BEGIN CERTIFICATE-----
MIID7TCCAtWgAwIBAgIBBTANBgkqhkiG9w0BAQsFADCBgjELMAkGA1UEBhMCVVMx
EDAOBgNVBAgMB0dlb3JnaWExEDAOBgNVBAcMB0F0bGFudGExDzANBgNVBAoMBkdB
VGVjaDEPMA0GA1UECwwGTUFTVEVSMQswCQYDVQQDDAJDQTEgMB4GCSqGSIb3DQEJ
ARYRZ2F0ZWNoQGdhdGVjaC5lZHUwHhcNMTYxMjAyMjEyMzA1WhcNMTcxMjAyMjEy
MzA1WjB0MQswCQYDVQQGEwJVUzEQMA4GA1UECAwHR2VvcmdpYTEPMA0GA1UECgwG
R0FUZWNoMQ8wDQYDVQQLDAZNQVNURVIxDzANBgNVBAMMBkNsaWVudDEgMB4GCSqG
SIb3DQEJARYRZ2F0ZWNoQGdhdGVjaC5lZHUwggEiMA0GCSqGSIb3DQEBAQUAA4IB
DwAwggEKAoIBAQDUpYQ1/Gq7PhC74au/U3o1QR63MdCSaLylLWrulEHoADWMM3Ed
sYlO2CKjvGYekCHBAeYPgHPNrf4mK6wyKn/RN8MRzjXk6dNzv61UnzHKjNorwIXU
SdRtE6A4sbQ548HG0vWzAHC/S5QMrB1L93xhm9MLA+hr21OSFOusnHSXGAAgY6SI
BV9PgELbi1S7C7sKN28PRX543vpluVW3sSMZk9lmpuQs8uK1Mu6+br5hYAE6hoSK
ZE2hKTwVOoODymKq5sXBiJfcSXmsIpRoQ9yQnzn9i9hDuLZY0TLtC3yC4hRowZIT
vYFNvfdhkBUpvDbCzbPEGGnRUePk1yur+u8bAgMBAAGjezB5MAkGA1UdEwQCMAAw
LAYJYIZIAYb4QgENBB8WHU9wZW5TU0wgR2VuZXJhdGVkIENlcnRpZmljYXRlMB0G
A1UdDgQWBBRyviCFquVziV58vbkHtOYZLzhAFDAfBgNVHSMEGDAWgBT/TA0NDBhj
gdpgUb4gatCPCNXC2jANBgkqhkiG9w0BAQsFAAOCAQEALAiaWgGLfqXzI8l4/5E+
n+MV/UubSDNJGxQ3BOSLvmZU0HdE91lKBpRhBOVxAwrEnb056+Bq/bGl6/alGi3t
2LySFr9a9OXy020HsaGhq6yin/rmmXvmm17iR3caHpTnNIOEvQIkpY4K1WYjJfUS
bpF6i/NiKXab/xi16604BZAEHWVHgtZ2wpDPPxh3TMsDUifvi5ADP8gwkzhA7kaY
dsdrA7fGUgez+UKSVGOwtE3fXnqllfclQSu70aqCin3/z/sDpSEQbLXPmrjvskdb
AEIHCO/qxVtROrZtEd/F3DmMhSmcHU7CVYqTMoiwfMP9MpKiVWKG6ycBNXmPYpYD
Lg==
-----END CERTIFICATE-----
-----BEGIN RSA PRIVATE KEY-----
MIIEogIBAAKCAQEA1KWENfxquz4Qu+Grv1N6NUEetzHQkmi8pS1q7pRB6AA1jDNx
HbGJTtgio7xmHpAhwQHmD4Bzza3+JiusMip/0TfDEc415OnTc7+tVJ8xyozaK8CF
1EnUbROgOLG0OePBxtL1swBwv0uUDKwdS/d8YZvTCwPoa9tTkhTrrJx0lxgAIGOk
iAVfT4BC24tUuwu7CjdvD0V+eN76ZblVt7EjGZPZZqbkLPLitTLuvm6+YWABOoaE
imRNoSk8FTqDg8piqubFwYiX3El5rCKUaEPckJ85/YvYQ7i2WNEy7Qt8guIUaMGS
E72BTb33YZAVKbw2ws2zxBhp0VHj5Ncrq/rvGwIDAQABAoIBAAiQ4lKKaIJCbcoj
vRdn9XRPuz0F9LDxJyhAPB6AOmduGrobGGNp024ppruRy0tP4wwzV2Eoe4G9kI9Z
EwayT5PN+z2sYN9ny+zNu928y/Ss190LVFjI4JXERKAECI6MbjHkLaGYUvJhyQT5
qfR1c7062bWH4sT1gNhRn2zEoK21ZvP+6OUwO52yDxZ7XqtVZcRfKPZUcE46ffTn
XCYLAk53lrHz6aOx2PJ4juqh/gz0IdTqXhMtEztxWEB55BIkHAsOrjMB41HyKONz
i6z2W1xzjAZ2hLN4hd2PMztqma0O0uorzab6B8ouje4WRd0u/ZQooVRTT9rbvelb
YFv2bwECgYEA+izfe+1bZNPo+z33xtuqEc+Xk6Kn2YrtDODSTlZIt5DpCjRJikrI
AoZHrZi2WykzICQryJgeJS3DEaxTrNJQe4MrMp6xlR7VZt6hHNlOMi660Bvd7A0G
RF6up3MJmC5LSZqe1SxEfPbbXz1fswTw6FxadOSeILIu/Ehiepajn5MCgYEA2Zj1
uH9nL29nfqRR5Bt/CHnCP72L7yTApjVCd1dnnENw5xiDA8/8p+j0bdT0Df0BjfrL
tG1QZa9238Kuiw3GGm+dMsdKwsGTmsq/nL7cCMCj+sDZ1YYX8JyNhcrleIiELTrd
tm21pUnbmgTASoksAhIQ98xo0EfnGMPlApoc11kCgYBqvV6VB46pFGkhWS0woWSM
uN/ZU9r9zHKbvgi897+K4r8rZWfDI2j2+sf2X2PevVNc8VHlAlJKVp4WGkqRQCKq
sCpsLJ1kHIW8oFxpbKYabymxxVIIdv4niaZHN6PuVEI3I0uFdJ+8Ga87kXoVbZRD
77OAkFKPbLbzWQb7eu5RFQKBgEaI6r4PrmcV+bp3kYQb1aXtsiXvT3kJtNkr0ovU
7WUeB28h5vZJaWEUhodDzIjsRqC7d2TZOoJ7ylDmTqYMpPbUz2Qybe2LykkXB93L
kI/VwlH6SaKJgSEh3k5MYu4bcp0mw8/q6ELYGjNm7t46cOWK7a0luaQqaqMAfS/G
vSqhAoGAAVQR1S6VNdINODVrSAWbW//tOAQz5YUf5R92GMmu7xMxE+FZlvvUALS+
xNKbpMqSi5oopOjfl9738mUkElGBrg+lg4K8nF8vyW5vA8H8Zds5a0CA5+/BoZ7b
2X3ZCDCXNZ/9x6ymQolkyRf8k+uZZWQPdAGDOhFbIHUkzsjMFy0=
-----END RSA PRIVATE KEY-----
