Certificate:
    Data:
        Version: 3 (0x2)
        Serial Number: 1 (0x1)
    Signature Algorithm: sha256WithRSAEncryption
        Issuer: C=US, ST=Georgia, L=Atlanta, O=GATech, OU=MASTER, CN=CA/emailAddress=gatech@gatech.edu
        Validity
            Not Before: Dec  2 21:23:04 2016 GMT
            Not After : Dec  2 21:23:04 2017 GMT
        Subject: C=US, ST=Georgia, O=GATech, OU=MASTER, CN=Server/emailAddress=gatech@gatech.edu
        Subject Public Key Info:
            Public Key Algorithm: rsaEncryption
                Public-Key: (2048 bit)
                Modulus:
                    00:cf:f8:13:bf:9c:b0:28:8f:15:45:12:b2:d5:d0:
                    59:51:ee:a2:e6:cc:6e:c9:bd:c7:06:79:da:79:ad:
                    50:6f:6e:87:93:16:83:0d:25:77:3e:a7:ef:49:5a:
                    05:37:a0:fe:99:64:37:6b:ed:af:bb:13:59:a7:3a:
                    22:95:bd:cb:7d:b7:aa:36:da:69:bb:d2:41:98:94:
                    24:72:8e:20:64:92:e3:63:0b:95:db:07:9f:8b:79:
                    ba:e3:cd:84:ae:f9:c9:f4:a2:87:44:73:e8:8d:c1:
                    f8:4a:8d:f4:5e:12:cd:95:74:03:01:fd:6e:a5:10:
                    b1:c0:dd:7d:1e:9e:5a:99:bc:59:1b:00:58:e8:60:
                    66:99:9b:12:91:73:71:6f:8a:9f:97:24:0e:43:87:
                    dc:2f:f4:c5:0e:b6:0e:3c:7f:dc:a2:c2:9b:9a:f2:
                    0b:69:29:68:e0:1e:6f:6d:8a:b4:9c:7d:da:8a:c0:
                    70:0a:16:bd:4e:75:4f:47:d7:39:42:8b:79:fb:6e:
                    3c:a8:bf:07:ad:4c:ad:37:4a:41:c4:68:03:b6:1a:
                    c1:93:60:64:90:f9:85:d1:47:d6:5e:66:60:20:1d:
                    10:ba:09:11:83:3c:cd:88:53:69:59:40:85:53:f5:
                    ef:58:61:a3:f6:93:c1:76:09:33:d3:28:1c:87:f0:
                    ba:31
                Exponent: 65537 (0x10001)
        X509v3 extensions:
            X509v3 Basic Constraints: 
                CA:FALSE
            Netscape Comment: 
                OpenSSL Generated Certificate
            X509v3 Subject Key Identifier: 
                D9:1D:54:E4:2D:94:B4:54:7F:A4:57:D5:C9:E9:99:40:29:4A:6D:1D
            X509v3 Authority Key Identifier: 
                keyid:FF:4C:0D:0D:0C:18:63:81:DA:60:51:BE:20:6A:D0:8F:08:D5:C2:DA

    Signature Algorithm: sha256WithRSAEncryption
         06:d0:36:99:b7:ec:0d:39:87:19:24:2f:33:99:ca:f5:53:1c:
         cc:01:36:3b:f9:bc:20:ec:3e:9b:0d:89:9e:d9:17:c4:54:0e:
         36:21:e2:d5:eb:be:af:43:77:b1:fe:bb:da:4c:47:b2:81:aa:
         e4:33:73:78:43:ce:c9:32:c3:74:85:27:72:4f:88:0e:ce:da:
         92:28:43:a8:76:a6:d0:d0:ff:6b:9d:bb:20:61:f6:e6:ca:ef:
         b9:21:21:3f:bc:98:ba:36:f8:08:3e:37:aa:d6:33:9e:d1:3e:
         2d:5f:82:87:d4:a9:b3:38:e7:94:46:0e:f6:d3:d1:a9:ad:12:
         80:ae:f9:15:69:81:b0:a6:f5:0f:4d:b8:94:97:fb:a9:59:7b:
         58:08:4f:b0:92:63:79:c0:b5:8e:56:c4:df:10:01:55:6c:9a:
         4c:bc:66:6d:92:f9:92:59:c4:27:3e:b1:6e:8e:10:dd:e4:41:
         49:1e:28:cf:b2:d8:71:05:e0:68:77:c6:60:9e:3a:c1:ea:e6:
         3d:70:10:5f:05:b7:9d:82:6a:d8:66:91:90:9b:a0:29:df:6b:
         c6:6b:6c:cb:76:68:02:ac:85:d8:ae:33:f0:ea:56:32:d1:66:
         0f:9a:1e:7a:ae:e7:6a:b8:bd:8a:ae:ab:a6:d0:8a:97:71:9d:
         42:a7:1c:83
-----BEGIN CERTIFICATE-----
MIID7TCCAtWgAwIBAgIBATANBgkqhkiG9w0BAQsFADCBgjELMAkGA1UEBhMCVVMx
EDAOBgNVBAgMB0dlb3JnaWExEDAOBgNVBAcMB0F0bGFudGExDzANBgNVBAoMBkdB
VGVjaDEPMA0GA1UECwwGTUFTVEVSMQswCQYDVQQDDAJDQTEgMB4GCSqGSIb3DQEJ
ARYRZ2F0ZWNoQGdhdGVjaC5lZHUwHhcNMTYxMjAyMjEyMzA0WhcNMTcxMjAyMjEy
MzA0WjB0MQswCQYDVQQGEwJVUzEQMA4GA1UECAwHR2VvcmdpYTEPMA0GA1UECgwG
R0FUZWNoMQ8wDQYDVQQLDAZNQVNURVIxDzANBgNVBAMMBlNlcnZlcjEgMB4GCSqG
SIb3DQEJARYRZ2F0ZWNoQGdhdGVjaC5lZHUwggEiMA0GCSqGSIb3DQEBAQUAA4IB
DwAwggEKAoIBAQDP+BO/nLAojxVFErLV0FlR7qLmzG7JvccGedp5rVBvboeTFoMN
JXc+p+9JWgU3oP6ZZDdr7a+7E1mnOiKVvct9t6o22mm70kGYlCRyjiBkkuNjC5Xb
B5+LebrjzYSu+cn0oodEc+iNwfhKjfReEs2VdAMB/W6lELHA3X0enlqZvFkbAFjo
YGaZmxKRc3Fvip+XJA5Dh9wv9MUOtg48f9yiwpua8gtpKWjgHm9tirScfdqKwHAK
Fr1OdU9H1zlCi3n7bjyovwetTK03SkHEaAO2GsGTYGSQ+YXRR9ZeZmAgHRC6CRGD
PM2IU2lZQIVT9e9YYaP2k8F2CTPTKByH8LoxAgMBAAGjezB5MAkGA1UdEwQCMAAw
LAYJYIZIAYb4QgENBB8WHU9wZW5TU0wgR2VuZXJhdGVkIENlcnRpZmljYXRlMB0G
A1UdDgQWBBTZHVTkLZS0VH+kV9XJ6ZlAKUptHTAfBgNVHSMEGDAWgBT/TA0NDBhj
gdpgUb4gatCPCNXC2jANBgkqhkiG9w0BAQsFAAOCAQEABtA2mbfsDTmHGSQvM5nK
9VMczAE2O/m8IOw+mw2JntkXxFQONiHi1eu+r0N3sf672kxHsoGq5DNzeEPOyTLD
dIUnck+IDs7akihDqHam0ND/a527IGH25srvuSEhP7yYujb4CD43qtYzntE+LV+C
h9SpszjnlEYO9tPRqa0SgK75FWmBsKb1D024lJf7qVl7WAhPsJJjecC1jlbE3xAB
VWyaTLxmbZL5klnEJz6xbo4Q3eRBSR4oz7LYcQXgaHfGYJ46wermPXAQXwW3nYJq
2GaRkJugKd9rxmtsy3ZoAqyF2K4z8OpWMtFmD5oeeq7nari9iq6rptCKl3GdQqcc
gw==
-----END CERTIFICATE-----
-----BEGIN RSA PRIVATE KEY-----
MIIEowIBAAKCAQEAz/gTv5ywKI8VRRKy1dBZUe6i5sxuyb3HBnnaea1Qb26HkxaD
DSV3PqfvSVoFN6D+mWQ3a+2vuxNZpzoilb3LfbeqNtppu9JBmJQkco4gZJLjYwuV
2wefi3m6482ErvnJ9KKHRHPojcH4So30XhLNlXQDAf1upRCxwN19Hp5ambxZGwBY
6GBmmZsSkXNxb4qflyQOQ4fcL/TFDrYOPH/cosKbmvILaSlo4B5vbYq0nH3aisBw
Cha9TnVPR9c5Qot5+248qL8HrUytN0pBxGgDthrBk2BkkPmF0UfWXmZgIB0QugkR
gzzNiFNpWUCFU/XvWGGj9pPBdgkz0ygch/C6MQIDAQABAoIBAGumunJBJV6ZUiVD
HJdZFiM3J9PYlrCPL+rGQLUjZbOIv10AFi5D6ongXBjYJEM7bw7vtVCE5KYtygaq
LSTd7evRmqZyQLEckR/t7z/tGg91iYbHhHawZ4HHLVqmE7yPSF79ko94gDSA54mQ
GaJokUp/lt781L1U+u4euJmU1skkqvlqkAc3JkPyRdAkwqCXdFkreZ1n0IfDV0pg
w0/bNWrmWV+jd6rpbmhpzYIl79VzRQsB+MVP6CXkaZG5rZRj1YtsYp3x9oN45n9E
xbhq7DGOebOR72M705AejnMDC143RECVi4Xljz+mAajEdr0pdLSbjJFKu8iP18jV
3xnhgAECgYEA7D0jBEXEPSZTl8NmKcibLMEqxjfGbOgO6w6S/SLXIxgH+3yzj8Nw
Tbf2l+YDr5tz8qppMS9MFTjcYL0JO0Il4pQsBgaqj/DQXI5XxAFUpWfg4bTEhh2k
282FW6dEQmqMxSwKXjT5HhYjfDbLY7OM+Ija35xsG4Lcx8wO1xPqLDECgYEA4V2Q
84vjBoC1IQQfyuq+36YCzIWSa/5toaHHI+5axvVYOEvoZng5zjN5NNy2yaJx/tR8
SMp8joEFoeqOurvGgFE9N6wJYuXQPrqM+KL76PE0oLyu++cBixsENAKN+s5D8Dcy
+vBw3SMfdy4u/B/ZoY1jj/HHrn9i35I9V87B7gECgYEAoJLFtGe/hVkBxMw6KviC
ER+TdXv/0ZLCYR9c5dbCqMXy1wvh+Tv8n7cFVCYyJzDg1Pbj3VyquFoX4WFcXv0N
Rz8z1Ty+vmwPFHpkSYQmBu/euUvnsMmBfy3pEW1WRlaqLHNM8M/M7JhbsliEUtZ+
YYiUTR3DlceTTfLzu1l7+GECgYACUxi/ql25H3K+2HALg8hcPjYhLe+ItaMj26tW
L4s4KieyzPWkuPC/s8A4T16DTe2nF0IA7jXCsooAVY8LVgyCHlRnUpr2LjCrtPjn
R6cZjANi9Q9JAeT+LlUoxC36vE3vGGKqO/iuD0Kv1AYgC6QPCopQXcoVfrLiY3vG
gBd4AQKBgEIrYL7vOtiRzw72q3qzHTNf/YX10tSYIIIfUuOjaEcxi0sUYTXwBoEr
4G1Cu7m5UMfCDZk8zwlZPXY378CZpTaveeQuThHHHVucyjIyJNNHoeKngqYVHE25
slCaX8jIIIEWPyZHtlEph7PyzTvh0IFwWbaEMmhGvbEDQWK31qUo
-----END RSA PRIVATE KEY-----
