Certificate:
    Data:
        Version: 3 (0x2)
        Serial Number: 2 (0x2)
    Signature Algorithm: sha256WithRSAEncryption
        Issuer: C=US, ST=Georgia, L=Atlanta, O=GATech, OU=MASTER, CN=CA/emailAddress=gatech@gatech.edu
        Validity
            Not Before: Dec  2 21:23:04 2016 GMT
            Not After : Dec  2 21:23:04 2017 GMT
        Subject: C=US, ST=Georgia, O=GATech, OU=MASTER, CN=User1/emailAddress=gatech@gatech.edu
        Subject Public Key Info:
            Public Key Algorithm: rsaEncryption
                Public-Key: (2048 bit)
                Modulus:
                    00:c8:e3:c1:fe:d3:58:42:83:2c:b0:d7:91:f0:d8:
                    9d:bf:18:6c:b1:88:ff:01:38:8d:fd:a4:c8:c0:49:
                    3a:6a:0d:69:cd:04:fa:63:7d:ca:6a:d0:0b:0b:0e:
                    5e:42:0e:a1:8c:14:ad:56:15:93:77:b0:f4:db:27:
                    6f:0e:89:50:7d:bc:43:8f:d7:04:4d:0c:e2:fb:b4:
                    5b:ef:13:94:9c:b0:89:8b:ab:90:0f:88:e4:05:b7:
                    9d:45:01:ca:f6:99:f5:3b:47:dc:d0:04:56:7e:b4:
                    84:19:a5:fb:f2:82:53:59:fe:d4:77:df:3c:12:cb:
                    f4:6b:44:ff:42:bc:70:51:dd:bc:2d:ad:a2:8d:73:
                    d5:01:68:de:74:ae:0a:43:67:0b:8a:25:44:f7:bb:
                    06:23:77:c7:3c:3d:ae:a9:ee:87:70:c7:48:e7:9b:
                    57:7a:99:7b:b0:bb:34:4c:a9:ab:25:b1:3a:89:c8:
                    bb:ba:55:dc:9c:da:f0:a6:70:3e:5e:f7:5e:74:a1:
                    d2:84:f5:8b:8a:8b:30:f7:42:97:d6:81:45:d5:38:
                    62:0b:34:26:7d:80:75:b9:6e:06:72:69:94:9f:35:
                    6c:95:6f:23:6b:e5:be:44:5d:96:d0:a8:f4:75:fc:
                    99:08:52:e7:7f:1d:70:f3:35:fd:59:c7:8a:7d:41:
                    48:5b
                Exponent: 65537 (0x10001)
        X509v3 extensions:
            X509v3 Basic Constraints: 
                CA:FALSE
            Netscape Comment: 
                OpenSSL Generated Certificate
            X509v3 Subject Key Identifier: 
                CB:BE:C8:5F:07:E3:5B:85:A8:C0:00:E2:7C:54:0E:7E:DA:38:E5:48
            X509v3 Authority Key Identifier: 
                keyid:FF:4C:0D:0D:0C:18:63:81:DA:60:51:BE:20:6A:D0:8F:08:D5:C2:DA

    Signature Algorithm: sha256WithRSAEncryption
         a0:79:de:1d:9f:3d:a4:31:b8:9f:aa:ed:f0:82:2c:15:6f:14:
         89:33:1e:26:d8:cd:17:3e:36:f6:2f:c8:4a:cc:f7:3e:1f:51:
         e1:6f:d9:31:6a:5a:8b:7f:ef:48:83:d9:c4:7b:8f:c7:cc:a4:
         fe:6d:b3:20:06:e5:9e:f4:c1:a2:26:05:48:24:a2:56:6f:81:
         da:19:ac:f2:89:41:7d:b5:a1:a2:22:a0:e7:0c:af:06:40:f4:
         aa:28:44:ef:f1:b7:06:f7:be:8a:ea:99:e9:3e:cb:63:9e:6d:
         30:99:23:74:59:92:df:a7:f1:2e:08:0c:1d:ef:91:9d:29:46:
         86:ff:a4:91:0f:d5:31:20:6a:cc:04:0c:67:13:d3:95:2b:07:
         2d:c9:50:b4:69:a3:aa:5d:ec:1e:32:16:88:ff:05:0c:81:91:
         c1:04:97:a5:a8:45:27:cf:d7:c3:d2:43:63:38:24:92:b0:5e:
         07:f4:b9:a3:05:9c:f0:78:18:24:83:7c:b4:b8:46:00:a3:1d:
         d7:bb:ff:30:3c:43:28:6b:ae:2d:dd:56:40:fc:e8:7f:36:fd:
         0a:92:d5:43:3d:49:30:73:d0:b5:24:88:5e:6b:18:39:c8:f5:
         5e:ca:f8:c9:a8:ce:1e:6f:fd:bc:de:cd:a4:2a:26:18:d5:34:
         df:bb:5d:ad
-----BEGIN CERTIFICATE-----
MIID7DCCAtSgAwIBAgIBAjANBgkqhkiG9w0BAQsFADCBgjELMAkGA1UEBhMCVVMx
EDAOBgNVBAgMB0dlb3JnaWExEDAOBgNVBAcMB0F0bGFudGExDzANBgNVBAoMBkdB
VGVjaDEPMA0GA1UECwwGTUFTVEVSMQswCQYDVQQDDAJDQTEgMB4GCSqGSIb3DQEJ
ARYRZ2F0ZWNoQGdhdGVjaC5lZHUwHhcNMTYxMjAyMjEyMzA0WhcNMTcxMjAyMjEy
MzA0WjBzMQswCQYDVQQGEwJVUzEQMA4GA1UECAwHR2VvcmdpYTEPMA0GA1UECgwG
R0FUZWNoMQ8wDQYDVQQLDAZNQVNURVIxDjAMBgNVBAMMBVVzZXIxMSAwHgYJKoZI
hvcNAQkBFhFnYXRlY2hAZ2F0ZWNoLmVkdTCCASIwDQYJKoZIhvcNAQEBBQADggEP
ADCCAQoCggEBAMjjwf7TWEKDLLDXkfDYnb8YbLGI/wE4jf2kyMBJOmoNac0E+mN9
ymrQCwsOXkIOoYwUrVYVk3ew9Nsnbw6JUH28Q4/XBE0M4vu0W+8TlJywiYurkA+I
5AW3nUUByvaZ9TtH3NAEVn60hBml+/KCU1n+1HffPBLL9GtE/0K8cFHdvC2too1z
1QFo3nSuCkNnC4olRPe7BiN3xzw9rqnuh3DHSOebV3qZe7C7NEypqyWxOonIu7pV
3Jza8KZwPl73XnSh0oT1i4qLMPdCl9aBRdU4Ygs0Jn2AdbluBnJplJ81bJVvI2vl
vkRdltCo9HX8mQhS538dcPM1/VnHin1BSFsCAwEAAaN7MHkwCQYDVR0TBAIwADAs
BglghkgBhvhCAQ0EHxYdT3BlblNTTCBHZW5lcmF0ZWQgQ2VydGlmaWNhdGUwHQYD
VR0OBBYEFMu+yF8H41uFqMAA4nxUDn7aOOVIMB8GA1UdIwQYMBaAFP9MDQ0MGGOB
2mBRviBq0I8I1cLaMA0GCSqGSIb3DQEBCwUAA4IBAQCged4dnz2kMbifqu3wgiwV
bxSJMx4m2M0XPjb2L8hKzPc+H1Hhb9kxalqLf+9Ig9nEe4/HzKT+bbMgBuWe9MGi
JgVIJKJWb4HaGazyiUF9taGiIqDnDK8GQPSqKETv8bcG976K6pnpPstjnm0wmSN0
WZLfp/EuCAwd75GdKUaG/6SRD9UxIGrMBAxnE9OVKwctyVC0aaOqXeweMhaI/wUM
gZHBBJelqEUnz9fD0kNjOCSSsF4H9LmjBZzweBgkg3y0uEYAox3Xu/8wPEMoa64t
3VZA/Oh/Nv0KktVDPUkwc9C1JIheaxg5yPVeyvjJqM4eb/283s2kKiYY1TTfu12t
-----END CERTIFICATE-----
-----BEGIN RSA PRIVATE KEY-----
MIIEowIBAAKCAQEAyOPB/tNYQoMssNeR8NidvxhssYj/ATiN/aTIwEk6ag1pzQT6
Y33KatALCw5eQg6hjBStVhWTd7D02ydvDolQfbxDj9cETQzi+7Rb7xOUnLCJi6uQ
D4jkBbedRQHK9pn1O0fc0ARWfrSEGaX78oJTWf7Ud988Esv0a0T/QrxwUd28La2i
jXPVAWjedK4KQ2cLiiVE97sGI3fHPD2uqe6HcMdI55tXepl7sLs0TKmrJbE6ici7
ulXcnNrwpnA+XvdedKHShPWLiosw90KX1oFF1ThiCzQmfYB1uW4GcmmUnzVslW8j
a+W+RF2W0Kj0dfyZCFLnfx1w8zX9WceKfUFIWwIDAQABAoIBAB32kqXeggiRpiXO
UW857/VjwDqOs3JMLCmL3YGIqpTM4V36Axq51WovE6aXgwmZQxEwuFXhq/grRao2
bIMfigjm/rDColqXtHdUhG3ZXs4sKqfRdBBNG62aoHN9e/diKUipRE8mhnwpkpZ8
wmJ+e84tiyVB/6TSFOe3B9e9YYdkJoEE5VGbgZAXn/9pmb4fRdquEjazSy/1XfsR
Dzi6eOQZl/890MI3Uw7G7EkMVCXyvBgt9qVXHXmuI7xt7yaK1Lq1NxLIDkP9dlnj
/GF83FlGjAa5SL4U+iwHMCqB3WMmNwZEe+8hO74W9L7V+xE6yTps6RWBPvSIkMtp
SclYXfkCgYEA70EPyG+lSK85/fjMswHanDA24Cyg0ZnvD2ruWdLdZ9KaZAYjv0yy
U2LCWR+4rleZArPFgIOBzC7jUwzvJdQ+hXSpZTd2GFpsPqPHGRD40FajYr+eeCjm
vPNj+xoN6E/2qgNlUCs1V1t9i5FmGPi6eZoX/O3tY1Ue/wWN4A2Sna0CgYEA1vNI
zoBckWmJ/KmeARMP7o3DADuLtmCB1PR0bx0Nd4vh8BgToUrXBIcDRyDg0te1iS6b
/3E8lyBTgLlin2C9vOkv7X/N1UqvFVT3Y7SpLHL066wi6E3McZdO5AsFOaBdG9z6
jTTfknrqFCgrXj8q2s8nJ/8LAnDEzZCxr5rqrycCgYEArr1NAq4QAIMCDuy8zGyp
NnO8UIQnvI353L/Tb0UjsaVOX4lgaGJix6YUnbUeVC7kMOYNdGwXy4HfQ5Ppwi4+
r4fiBGu6U9UOw70oN7V+k+MDF6ct3UK6Kvx0ZDvGNorYc5lhUGkOX0wR6HJ8J/bZ
cuDJblBzlZ3gso9i7GXdVE0CgYBwHHgO7LhbR5am57j3in+2xs28Y1JdjzxoXBAW
nCqX/aecWJJ0f9piDCFTifx5O/T9VggbVW5qzHuBGjAsPIL58w4Ca7Rp2Qg0shpO
ML5D5rmD6kZSr7FAVdDZ9D2HbvLhQ4KS/87UUbOhS8pC3+N0OLONkuKlJTggl6V1
l/Fr5QKBgCbTVmxJmW+V6hdA/9RZVSi2RziW3eX2h2hyZd1YzonyDQUYZGzLcM72
pIoV+AeF9Agzn/Ku4vA4vg1LCvHO5G+XQWOjH8tCf+jc50lKXyt/HOokrk/2vvxR
E22IlPL9PU/irRO+xAcS8nf4+2MGp8sYJ4s+A//o8rsBWrb6/91O
-----END RSA PRIVATE KEY-----
