Certificate:
    Data:
        Version: 3 (0x2)
        Serial Number: 3 (0x3)
    Signature Algorithm: sha256WithRSAEncryption
        Issuer: C=US, ST=Georgia, L=Atlanta, O=GATech, OU=MASTER, CN=CA/emailAddress=gatech@gatech.edu
        Validity
            Not Before: Dec  2 21:23:05 2016 GMT
            Not After : Dec  2 21:23:05 2017 GMT
        Subject: C=US, ST=Georgia, O=GATech, OU=MASTER, CN=User2/emailAddress=gatech@gatech.edu
        Subject Public Key Info:
            Public Key Algorithm: rsaEncryption
                Public-Key: (2048 bit)
                Modulus:
                    00:d2:de:d4:c5:f7:9f:4c:e2:24:d4:f9:92:07:fd:
                    ac:07:4f:6f:8b:46:a6:87:ed:76:0c:f4:c2:6e:5c:
                    1b:91:a9:ff:ca:28:38:fa:be:9d:08:4a:97:9b:ef:
                    b0:36:63:78:28:9e:c7:3b:71:97:ba:84:6c:48:ed:
                    4c:c6:59:0b:64:86:87:f7:f2:02:96:c6:ae:84:89:
                    55:06:6b:55:b9:8b:ee:d2:7a:f6:ec:dd:04:eb:45:
                    fd:cc:b3:1c:63:4a:6a:52:f3:ff:2e:43:45:d2:67:
                    97:b6:01:7b:05:94:6a:de:01:7e:9c:f8:9d:ec:d3:
                    11:55:8e:ea:35:0a:48:5d:2d:ad:5c:f1:0d:01:d1:
                    d0:f1:1e:3f:54:7d:b4:60:60:9e:61:24:7b:9b:b3:
                    2e:19:78:4d:a8:57:0f:21:31:49:91:36:c2:18:db:
                    ed:fb:64:24:54:e6:3e:2f:16:5d:59:2d:ed:15:44:
                    fd:15:8a:db:67:b3:fd:70:bf:56:55:0e:fa:47:5d:
                    4e:90:57:85:ed:e0:60:70:e2:ae:b3:26:6c:5e:21:
                    45:a3:d9:0e:3c:4a:0a:27:9c:9b:33:64:9a:b0:6b:
                    7f:db:f0:06:c5:04:e7:1f:65:45:2c:4f:b7:54:e0:
                    2c:49:32:b6:25:3b:e9:ea:bf:d8:cf:81:6f:94:82:
                    43:41
                Exponent: 65537 (0x10001)
        X509v3 extensions:
            X509v3 Basic Constraints: 
                CA:FALSE
            Netscape Comment: 
                OpenSSL Generated Certificate
            X509v3 Subject Key Identifier: 
                A6:D2:90:CD:0B:A6:20:37:2B:2F:F7:B6:A7:64:FD:AA:DB:81:9A:80
            X509v3 Authority Key Identifier: 
                keyid:FF:4C:0D:0D:0C:18:63:81:DA:60:51:BE:20:6A:D0:8F:08:D5:C2:DA

    Signature Algorithm: sha256WithRSAEncryption
         4c:37:8c:ce:33:de:7f:fb:a8:7d:db:e5:ed:71:85:38:78:1d:
         d8:18:60:b4:38:32:01:b1:cf:d4:f3:33:2e:76:8b:f5:8a:13:
         0b:79:fb:8c:df:76:12:fd:9b:87:e7:22:38:c2:3e:07:c4:06:
         9c:ee:48:73:29:24:03:8e:91:a0:68:9e:6a:8e:21:32:5f:09:
         be:1f:0d:6a:05:7a:89:16:c1:50:65:b2:52:31:60:2f:76:2e:
         b0:d1:a3:6f:62:25:59:73:83:66:2a:59:4e:cf:cb:fa:20:da:
         48:b3:54:1c:41:9e:ac:99:86:1d:10:f5:aa:52:22:a3:5c:3c:
         31:8c:a7:67:d6:10:8e:76:75:a9:82:8e:dd:b0:81:7d:e6:8a:
         27:d9:24:fb:79:d0:48:d2:8e:75:6e:a1:f3:41:52:5a:8b:17:
         f4:1b:bb:5d:bd:3d:6c:23:11:d2:a7:82:4f:41:4e:d1:6c:76:
         09:07:67:eb:ab:d1:33:6d:65:dc:86:4a:30:29:22:11:4b:e9:
         05:92:25:5b:fd:6a:41:5b:2f:0f:1a:01:29:d6:71:85:90:e9:
         f3:92:05:10:ec:ef:d7:d9:a2:08:03:83:d7:cf:75:92:a5:32:
         9c:50:ef:65:ba:b4:c3:3d:42:75:a8:fd:ed:64:97:02:ed:3b:
         e2:40:fb:99
-----BEGIN CERTIFICATE-----
MIID7DCCAtSgAwIBAgIBAzANBgkqhkiG9w0BAQsFADCBgjELMAkGA1UEBhMCVVMx
EDAOBgNVBAgMB0dlb3JnaWExEDAOBgNVBAcMB0F0bGFudGExDzANBgNVBAoMBkdB
VGVjaDEPMA0GA1UECwwGTUFTVEVSMQswCQYDVQQDDAJDQTEgMB4GCSqGSIb3DQEJ
ARYRZ2F0ZWNoQGdhdGVjaC5lZHUwHhcNMTYxMjAyMjEyMzA1WhcNMTcxMjAyMjEy
MzA1WjBzMQswCQYDVQQGEwJVUzEQMA4GA1UECAwHR2VvcmdpYTEPMA0GA1UECgwG
R0FUZWNoMQ8wDQYDVQQLDAZNQVNURVIxDjAMBgNVBAMMBVVzZXIyMSAwHgYJKoZI
hvcNAQkBFhFnYXRlY2hAZ2F0ZWNoLmVkdTCCASIwDQYJKoZIhvcNAQEBBQADggEP
ADCCAQoCggEBANLe1MX3n0ziJNT5kgf9rAdPb4tGpoftdgz0wm5cG5Gp/8ooOPq+
nQhKl5vvsDZjeCiexztxl7qEbEjtTMZZC2SGh/fyApbGroSJVQZrVbmL7tJ69uzd
BOtF/cyzHGNKalLz/y5DRdJnl7YBewWUat4Bfpz4nezTEVWO6jUKSF0trVzxDQHR
0PEeP1R9tGBgnmEke5uzLhl4TahXDyExSZE2whjb7ftkJFTmPi8WXVkt7RVE/RWK
22ez/XC/VlUO+kddTpBXhe3gYHDirrMmbF4hRaPZDjxKCiecmzNkmrBrf9vwBsUE
5x9lRSxPt1TgLEkytiU76eq/2M+Bb5SCQ0ECAwEAAaN7MHkwCQYDVR0TBAIwADAs
BglghkgBhvhCAQ0EHxYdT3BlblNTTCBHZW5lcmF0ZWQgQ2VydGlmaWNhdGUwHQYD
VR0OBBYEFKbSkM0LpiA3Ky/3tqdk/arbgZqAMB8GA1UdIwQYMBaAFP9MDQ0MGGOB
2mBRviBq0I8I1cLaMA0GCSqGSIb3DQEBCwUAA4IBAQBMN4zOM95/+6h92+XtcYU4
eB3YGGC0ODIBsc/U8zMudov1ihMLefuM33YS/ZuH5yI4wj4HxAac7khzKSQDjpGg
aJ5qjiEyXwm+Hw1qBXqJFsFQZbJSMWAvdi6w0aNvYiVZc4NmKllOz8v6INpIs1Qc
QZ6smYYdEPWqUiKjXDwxjKdn1hCOdnWpgo7dsIF95oon2ST7edBI0o51bqHzQVJa
ixf0G7tdvT1sIxHSp4JPQU7RbHYJB2frq9EzbWXchkowKSIRS+kFkiVb/WpBWy8P
GgEp1nGFkOnzkgUQ7O/X2aIIA4PXz3WSpTKcUO9lurTDPUJ1qP3tZJcC7TviQPuZ
-----END CERTIFICATE-----
-----BEGIN RSA PRIVATE KEY-----
MIIEpgIBAAKCAQEA0t7UxfefTOIk1PmSB/2sB09vi0amh+12DPTCblwbkan/yig4
+r6dCEqXm++wNmN4KJ7HO3GXuoRsSO1MxlkLZIaH9/IClsauhIlVBmtVuYvu0nr2
7N0E60X9zLMcY0pqUvP/LkNF0meXtgF7BZRq3gF+nPid7NMRVY7qNQpIXS2tXPEN
AdHQ8R4/VH20YGCeYSR7m7MuGXhNqFcPITFJkTbCGNvt+2QkVOY+LxZdWS3tFUT9
FYrbZ7P9cL9WVQ76R11OkFeF7eBgcOKusyZsXiFFo9kOPEoKJ5ybM2SasGt/2/AG
xQTnH2VFLE+3VOAsSTK2JTvp6r/Yz4FvlIJDQQIDAQABAoIBAQCcOsGzhll80dNu
AxWBXB0XMXA35Pk+nd0njjN7Jjy6uBOuCAznIVAgs3sN6hBIy3tbxP9g+DDs3G2J
vl5yWciKCu4z8hae9MaZpVHcNqvFk3o2cSn+pWWeljWKcm0m1xxdJy85bFgPofaR
vxkRMjvXDY5r5/rBWkNuezrkXyDr/rInZMvhbxbU4ixm8P3h6/mNVI9mVYo7EOzP
FLGLauXWnCbscmEn/U0Jn4pkkLppVtdOuYFdrKo4OUL1Wia1oSh5YfEeKW1jpV3D
Fw2wSkh87U5TaN1rgrh/hrQ/pRz+n+dvdGB1HiiHWSd5K3pdgNWm0mkKiUpxOa0Z
xpMdOfwdAoGBAO0rZGy4PjW2WC8jco46x+ruPdHAMFzjnM+ZBDyipxS7ki9EobA8
mPx3bKSA9JF2jgfwnWuEgHtQoDd4r6Okm9LWKGP3S4I+v4FNV5Q1FxjizIru8opH
PY+Ia9dsZhIyerQpxxgi/PUgR71GI3GZkVxt3hMzi0D52LmKiA/xFSczAoGBAOOc
5SMiyw3zhdghPXw6tTNvHWhwPVnLEejDF8oa+VzJMIf2+zuxQHCCHhkk/eGTT5v5
ulfSliQmLhePnBswVlBLgyffb3w948NAOISqZpG3OehNuXK4SK8k1rlxDtevMhVJ
KrhPIAFHSl+RrEL8IBZdsefNMsAjAWtErjogYtu7AoGBAJOkdanwsFmDoDYIHSJJ
mXa4xSc0O2c4EsBxg1+z6ctQUVq3oOgzcRGJzspBtP5xDU4IDheGru0VbgfaS4zV
xmNkClTg99Km+VSnLyQGQNCvL6I1yism2j3mMSw0QP6HCjfp4hU2gr6eT8qWRS5M
6V7ezmapqcDTSIWIpdc2v3JdAoGBAJVlfeC6DZ1yof9ikgDgZ98Cp8LNKPevGmo0
44B8hAAq7ffQXMapaSpvvWGzrhBJqI8wMudCCdpgVRCR6lzONVkutz+MoJhj5wNZ
O7+YOQqbwR6BJZ/u5YZQH8BIPP3EuJLQG4IuLUuph1+DNhYhds43YXZMcWs7jsrh
oZn1d+3RAoGBAKADyBUDW2sprmZnVH468qDy5n4Uj40gNok8sK7P24x9WAkc0Wtt
mmHTNXYZVcYOA/tN+lWE7E/JDqx+MTVRejeXyw/e60cLoyp8aOWaphWNs9MWYIu6
nCCND2tXm3SCPsUDt96yKJ0egxdIz5EyivWG/Y7GHHYL1iKIW9NQN3hG
-----END RSA PRIVATE KEY-----
