Certificate:
    Data:
        Version: 3 (0x2)
        Serial Number: 4 (0x4)
    Signature Algorithm: sha256WithRSAEncryption
        Issuer: C=US, ST=Georgia, L=Atlanta, O=GATech, OU=MASTER, CN=CA/emailAddress=gatech@gatech.edu
        Validity
            Not Before: Dec  2 21:23:05 2016 GMT
            Not After : Dec  2 21:23:05 2017 GMT
        Subject: C=US, ST=Georgia, O=GATech, OU=MASTER, CN=User3/emailAddress=gatech@gatech.edu
        Subject Public Key Info:
            Public Key Algorithm: rsaEncryption
                Public-Key: (2048 bit)
                Modulus:
                    00:aa:57:32:5c:46:66:40:67:6c:85:55:fd:2a:cc:
                    d8:3f:cd:3e:e5:15:4f:30:4e:eb:d9:bb:02:dd:66:
                    e2:c2:ee:32:83:94:e5:d9:70:1a:de:f7:e3:f7:f1:
                    b4:6b:c4:c2:ff:51:e3:e8:ef:c3:48:31:bb:4a:ec:
                    7e:97:cf:8e:a1:97:39:0c:23:eb:d3:70:7f:7e:0e:
                    7b:8b:af:a9:a8:f6:20:67:89:48:91:d8:63:8f:55:
                    ac:1b:1c:a2:41:b1:ae:02:f8:e5:74:0a:6f:f6:82:
                    53:d2:c7:0a:8c:e6:96:19:7a:04:0f:38:87:fb:f8:
                    8f:6f:ce:4b:80:02:fc:3b:19:26:43:ff:2d:ee:86:
                    8f:44:71:8e:f7:72:c7:36:99:23:c2:91:83:c4:8a:
                    af:0d:68:82:27:2e:d1:b4:1f:6f:18:d5:d0:c7:66:
                    31:d9:01:91:03:35:e8:d2:5d:6a:39:e5:74:5f:62:
                    3e:92:35:69:81:04:68:74:55:3a:f0:f3:64:84:85:
                    c6:d5:de:ea:32:38:8c:bd:53:6b:2d:c6:c7:4b:12:
                    d5:63:f7:e7:74:b3:9c:aa:16:e7:0f:49:3d:f7:7f:
                    42:83:bf:df:5f:a1:e6:38:e0:1b:c5:a3:2f:a0:a0:
                    2e:15:28:52:12:0f:c4:1a:07:2b:00:80:96:7c:95:
                    70:49
                Exponent: 65537 (0x10001)
        X509v3 extensions:
            X509v3 Basic Constraints: 
                CA:FALSE
            Netscape Comment: 
                OpenSSL Generated Certificate
            X509v3 Subject Key Identifier: 
                48:90:E7:0D:E4:7B:6D:5C:46:EC:4F:E6:2C:7D:DB:74:1F:98:E9:BB
            X509v3 Authority Key Identifier: 
                keyid:FF:4C:0D:0D:0C:18:63:81:DA:60:51:BE:20:6A:D0:8F:08:D5:C2:DA

    Signature Algorithm: sha256WithRSAEncryption
         a1:08:3b:92:f2:e6:93:a7:0f:ff:90:6d:96:1d:dc:53:de:95:
         54:0e:34:d9:f3:47:f6:20:27:49:df:e6:58:a6:96:51:05:a5:
         a9:46:34:99:05:65:a3:58:01:57:e5:14:32:24:0b:b1:7e:60:
         17:cb:b2:fb:9c:ce:45:19:ca:86:0d:a8:8b:14:19:8a:cd:f5:
         85:53:00:79:cf:52:83:f9:ea:8f:73:6c:d5:84:ba:b0:13:8c:
         df:14:88:69:ad:07:3b:9e:a4:2f:0e:fd:2f:59:8e:5d:56:fa:
         ba:71:76:80:82:db:1f:fb:5a:d0:33:4a:60:61:af:6f:29:8a:
         7d:da:bc:90:28:ee:91:f8:b3:ec:0c:17:0c:31:c8:d8:e9:ef:
         b8:33:4c:54:86:b7:95:b9:13:6f:49:0d:6c:0f:f4:02:8f:4b:
         f6:14:6a:d5:61:06:cf:e7:cf:2b:5d:d3:dc:df:9d:14:a0:40:
         b0:d9:52:b6:28:7d:35:34:a6:1e:6c:45:fb:70:f8:15:90:23:
         44:67:2a:3c:21:48:f0:9b:4e:f6:44:47:90:d3:20:2c:5a:c3:
         07:34:f7:71:e8:62:f6:f2:64:78:4a:d0:fa:46:00:92:17:9c:
         7b:69:a4:09:67:cb:20:53:0c:2d:55:91:bc:7a:b0:45:8a:a9:
         1e:2e:d1:69
-----BEGIN CERTIFICATE-----
MIID7DCCAtSgAwIBAgIBBDANBgkqhkiG9w0BAQsFADCBgjELMAkGA1UEBhMCVVMx
EDAOBgNVBAgMB0dlb3JnaWExEDAOBgNVBAcMB0F0bGFudGExDzANBgNVBAoMBkdB
VGVjaDEPMA0GA1UECwwGTUFTVEVSMQswCQYDVQQDDAJDQTEgMB4GCSqGSIb3DQEJ
ARYRZ2F0ZWNoQGdhdGVjaC5lZHUwHhcNMTYxMjAyMjEyMzA1WhcNMTcxMjAyMjEy
MzA1WjBzMQswCQYDVQQGEwJVUzEQMA4GA1UECAwHR2VvcmdpYTEPMA0GA1UECgwG
R0FUZWNoMQ8wDQYDVQQLDAZNQVNURVIxDjAMBgNVBAMMBVVzZXIzMSAwHgYJKoZI
hvcNAQkBFhFnYXRlY2hAZ2F0ZWNoLmVkdTCCASIwDQYJKoZIhvcNAQEBBQADggEP
ADCCAQoCggEBAKpXMlxGZkBnbIVV/SrM2D/NPuUVTzBO69m7At1m4sLuMoOU5dlw
Gt734/fxtGvEwv9R4+jvw0gxu0rsfpfPjqGXOQwj69Nwf34Oe4uvqaj2IGeJSJHY
Y49VrBscokGxrgL45XQKb/aCU9LHCozmlhl6BA84h/v4j2/OS4AC/DsZJkP/Le6G
j0RxjvdyxzaZI8KRg8SKrw1ogicu0bQfbxjV0MdmMdkBkQM16NJdajnldF9iPpI1
aYEEaHRVOvDzZISFxtXe6jI4jL1Tay3Gx0sS1WP353SznKoW5w9JPfd/QoO/31+h
5jjgG8WjL6CgLhUoUhIPxBoHKwCAlnyVcEkCAwEAAaN7MHkwCQYDVR0TBAIwADAs
BglghkgBhvhCAQ0EHxYdT3BlblNTTCBHZW5lcmF0ZWQgQ2VydGlmaWNhdGUwHQYD
VR0OBBYEFEiQ5w3ke21cRuxP5ix923QfmOm7MB8GA1UdIwQYMBaAFP9MDQ0MGGOB
2mBRviBq0I8I1cLaMA0GCSqGSIb3DQEBCwUAA4IBAQChCDuS8uaTpw//kG2WHdxT
3pVUDjTZ80f2ICdJ3+ZYppZRBaWpRjSZBWWjWAFX5RQyJAuxfmAXy7L7nM5FGcqG
DaiLFBmKzfWFUwB5z1KD+eqPc2zVhLqwE4zfFIhprQc7nqQvDv0vWY5dVvq6cXaA
gtsf+1rQM0pgYa9vKYp92ryQKO6R+LPsDBcMMcjY6e+4M0xUhreVuRNvSQ1sD/QC
j0v2FGrVYQbP588rXdPc350UoECw2VK2KH01NKYebEX7cPgVkCNEZyo8IUjwm072
REeQ0yAsWsMHNPdx6GL28mR4StD6RgCSF5x7aaQJZ8sgUwwtVZG8erBFiqkeLtFp
-----END CERTIFICATE-----
-----BEGIN RSA PRIVATE KEY-----
MIIEpAIBAAKCAQEAqlcyXEZmQGdshVX9KszYP80+5RVPME7r2bsC3Wbiwu4yg5Tl
2XAa3vfj9/G0a8TC/1Hj6O/DSDG7Sux+l8+OoZc5DCPr03B/fg57i6+pqPYgZ4lI
kdhjj1WsGxyiQbGuAvjldApv9oJT0scKjOaWGXoEDziH+/iPb85LgAL8OxkmQ/8t
7oaPRHGO93LHNpkjwpGDxIqvDWiCJy7RtB9vGNXQx2Yx2QGRAzXo0l1qOeV0X2I+
kjVpgQRodFU68PNkhIXG1d7qMjiMvVNrLcbHSxLVY/fndLOcqhbnD0k9939Cg7/f
X6HmOOAbxaMvoKAuFShSEg/EGgcrAICWfJVwSQIDAQABAoIBADPwWIO4V49FudpC
KOq3AS0bGRVi1P2G4vVFx47Yw0XquW5TpW4Sd68K6PD+OyQtH8QYJSUujl3iBBjJ
WaRSfkwZPyTLgym6gLVgFx21l0bUnXbUblNCJsFavxqZNYRQeB2h5NzoHdGNVZ/M
XxQtbxEfmkNF2njjBmFyBqVmw6AFAMPb8DkAHRxQFmUDrp4NU9ER0KS9MTYnEaPZ
auyCKnJpJes69b9Iinq26jZ+fAMH096idO4+u5/TxTqrgNygqcDwBcktxWYMoC+l
nA5TlPFHsyTjVOfdmiD3oMu+lnK8xP2PCw2a0si1CWX+ghwsK49wNmMIOV1aMaOm
5auZRX0CgYEA0YWU8oidWGsDjFf+wBY1qkO4YeQ7pIT85QqNY0jLdBBGx1cPJjKw
yudnlJtVdIEys+BWUO+De2PBV4hZkz7DK2m/WCMAh7XenteZNu7DEhYk8sV2OeLd
1HBJvkH2qGSbJd0Y/8fMAjFkW4i2G5xNGnAqdLVKD/LmfZuqCGqAFHsCgYEA0CCT
Z7l8JBNvVWFBYNg2dXR5382ogA45/KtX2TY2hCDQn9i8zXz1UekbtSmb8dvad4uP
A81cD3d4oLFZ3Aonbg6e1mZ4YIPiPzen1kq6cFzg0Ax00YpFKPqo3oHFmRRulps/
7hl7uQQq7PklFghERVE8qnlysmc2n1rqZRhV/QsCgYEAikOMt0BQFTkJbmPjSP9f
Cq0F0BO9CCR6fusnwo0XNdBH5OQeqyZoZH2wbPDUw70+qFUyoNZt/c8ml4zzD6gr
Q0rVamQuxV/POSMtiIKnWBgk6dBE5I5BtR8kitkc3KMHf0UYajJ+/jN59q2Q/0d1
2iyK19mKtluknt9KpaMiQmECgYA6gz4N5kbxeYlObrZLvN2qreFpu08JGXbSA3YC
OkyfXv5oQi3qc5wguDGzAAy4tX+5JkJB5mVgb805GENUKoKlXXTogAyNzeY4sbP8
+itqVaJau3XIR2BkQfxh+ggMnoLs0p7pmL6A6JwM3YrAo/hVqJ4uq1BEueHQcWX+
oBXkuwKBgQCdIDYtYRQKvqvq+sPiN+/0I2R8LZUc+v0EWLAOlXYa+NrVQoiKf8WD
mQ2Eivt21ipt20QQ7wwD7SAo7WnLLLXwKhqL5Waivlxbm3ShybYGsufTtUTr1PCJ
3uwJEjpvI/93+0lAKgph+Kjgb+0dWPYOqeay3XScrMOuuERp4br9qA==
-----END RSA PRIVATE KEY-----
